; Function Attrs: nounwind uwtable
define i32 @ossl_dsa_ffc_params_fromdata(ptr noundef %0, ptr noundef %1) local_unnamed_addr #0 {
  %3 = getelementptr inbounds nuw i8, ptr %0, i64 8
  %4 = tail call i32 @ossl_ffc_params_fromdata(ptr noundef nonnull %3, ptr noundef %1) #7
  %.not = icmp eq i32 %4, 0
  br i1 %.not, label %9, label %5

5:                                                ; preds = %2
  %6 = getelementptr inbounds nuw i8, ptr %0, i64 192
  %7 = load i64, ptr %6, align 8, !tbaa !34
  %8 = add i64 %7, 1
  store i64 %8, ptr %6, align 8, !tbaa !34
  br label %9

9:                                                ; preds = %5, %2
  ret i32 %4
}